target datalayout = "e-m:e-p270:32:32-p271:32:32-p272:64:64-i64:64-i128:128-f80:128-n8:16:32:64-S128"
target triple = "x86_64-pc-linux-gnu"

%struct.jit_State = type { %struct.GCtrace, ptr, ptr, ptr, ptr, ptr, ptr, i32, i32, i32, i8, i8, %struct.IRType1, i8, %struct.FoldState, ptr, i32, i32, i32, i32, i32, i32, i32, [1 x i32], [5 x %union.TValue], [3 x %union.TValue], ptr, i32, i32, i32, i32, ptr, ptr, i32, i32, i8, ptr, i32, i32, i16, [101 x i16], [258 x i32], [15 x i32], [16 x ptr], [64 x %struct.HotPenalty], i32, [16 x %struct.BPropEntry], i32, %struct.ScEvEntry, ptr, i32, i32, i32, ptr, i32, i32, ptr, ptr, ptr, i64, i64, %union.TValue, ptr, i32, i32 }
%struct.GCtrace = type { %struct.GCRef, i8, i8, i16, i32, i32, %struct.GCRef, ptr, i32, i32, ptr, ptr, %struct.GCRef, %struct.MRef, i32, i32, ptr, i32, i16, i16, i16, i16, i16, i16, i16, i8, i8, i8, i8 }
%struct.GCRef = type { i64 }
%struct.MRef = type { i64 }
%struct.IRType1 = type { i8 }
%struct.FoldState = type { %union.IRIns, [2 x %union.IRIns], [2 x %union.IRIns] }
%union.IRIns = type { %struct.GCRef }
%struct.HotPenalty = type { %struct.MRef, i16, i16 }
%struct.BPropEntry = type { i16, i16, i32 }
%struct.ScEvEntry = type { %struct.MRef, i16, i16, i16, i16, %struct.IRType1, i8 }
%union.TValue = type { i64 }

; Function Attrs: nounwind uwtable
define internal i32 @innerloopleft(ptr noundef %0, ptr noundef %1) #0 {
  %3 = alloca i32, align 4
  %4 = alloca ptr, align 8
  %5 = alloca ptr, align 8
  %6 = alloca i64, align 8
  %7 = alloca i32, align 4
  store ptr %0, ptr %4, align 8, !tbaa !4
  store ptr %1, ptr %5, align 8, !tbaa !54
  call void @llvm.lifetime.start.p0(i64 8, ptr %6) #9
  store i64 0, ptr %6, align 8, !tbaa !49
  br label %8

8:                                                ; preds = %52, %2
  %9 = load i64, ptr %6, align 8, !tbaa !49
  %10 = icmp slt i64 %9, 64
  br i1 %10, label %11, label %55

11:                                               ; preds = %8
  %12 = load ptr, ptr %4, align 8, !tbaa !4
  %13 = getelementptr inbounds nuw %struct.jit_State, ptr %12, i32 0, i32 44
  %14 = load i64, ptr %6, align 8, !tbaa !49
  %15 = getelementptr inbounds [64 x %struct.HotPenalty], ptr %13, i64 0, i64 %14
  %16 = getelementptr inbounds nuw %struct.HotPenalty, ptr %15, i32 0, i32 0
  %17 = getelementptr inbounds nuw %struct.MRef, ptr %16, i32 0, i32 0
  %18 = load i64, ptr %17, align 8, !tbaa !223
  %19 = inttoptr i64 %18 to ptr
  %20 = load ptr, ptr %5, align 8, !tbaa !54
  %21 = icmp eq ptr %19, %20
  br i1 %21, label %22, label %51

22:                                               ; preds = %11
  %23 = load ptr, ptr %4, align 8, !tbaa !4
  %24 = getelementptr inbounds nuw %struct.jit_State, ptr %23, i32 0, i32 44
  %25 = load i64, ptr %6, align 8, !tbaa !49
  %26 = getelementptr inbounds [64 x %struct.HotPenalty], ptr %24, i64 0, i64 %25
  %27 = getelementptr inbounds nuw %struct.HotPenalty, ptr %26, i32 0, i32 2
  %28 = load i16, ptr %27, align 2, !tbaa !225
  %29 = zext i16 %28 to i32
  %30 = icmp eq i32 %29, 8
  br i1 %30, label %40, label %31

31:                                               ; preds = %22
  %32 = load ptr, ptr %4, align 8, !tbaa !4
  %33 = getelementptr inbounds nuw %struct.jit_State, ptr %32, i32 0, i32 44
  %34 = load i64, ptr %6, align 8, !tbaa !49
  %35 = getelementptr inbounds [64 x %struct.HotPenalty], ptr %33, i64 0, i64 %34
  %36 = getelementptr inbounds nuw %struct.HotPenalty, ptr %35, i32 0, i32 2
  %37 = load i16, ptr %36, align 2, !tbaa !225
  %38 = zext i16 %37 to i32
  %39 = icmp eq i32 %38, 9
  br i1 %39, label %40, label %50

40:                                               ; preds = %31, %22
  %41 = load ptr, ptr %4, align 8, !tbaa !4
  %42 = getelementptr inbounds nuw %struct.jit_State, ptr %41, i32 0, i32 44
  %43 = load i64, ptr %6, align 8, !tbaa !49
  %44 = getelementptr inbounds [64 x %struct.HotPenalty], ptr %42, i64 0, i64 %43
  %45 = getelementptr inbounds nuw %struct.HotPenalty, ptr %44, i32 0, i32 1
  %46 = load i16, ptr %45, align 8, !tbaa !226
  %47 = zext i16 %46 to i32
  %48 = icmp sge i32 %47, 144
  br i1 %48, label %49, label %50

49:                                               ; preds = %40
  store i32 1, ptr %3, align 4
  store i32 1, ptr %7, align 4
  br label %56

50:                                               ; preds = %40, %31
  br label %55

51:                                               ; preds = %11
  br label %52

52:                                               ; preds = %51
  %53 = load i64, ptr %6, align 8, !tbaa !49
  %54 = add nsw i64 %53, 1
  store i64 %54, ptr %6, align 8, !tbaa !49
  br label %8, !llvm.loop !227

55:                                               ; preds = %50, %8
  store i32 0, ptr %3, align 4
  store i32 1, ptr %7, align 4
  br label %56

56:                                               ; preds = %55, %49
  call void @llvm.lifetime.end.p0(i64 8, ptr %6) #9
  %57 = load i32, ptr %3, align 4
  ret i32 %57
}

; Function Attrs: nounwind uwtable
define internal void @rec_loop_interp(ptr noundef %0, ptr noundef %1, i32 noundef %2) #0 {
  %4 = alloca ptr, align 8
  %5 = alloca ptr, align 8
  %6 = alloca i32, align 4
  store ptr %0, ptr %4, align 8, !tbaa !4
  store ptr %1, ptr %5, align 8, !tbaa !54
  store i32 %2, ptr %6, align 4, !tbaa !9
  %7 = load ptr, ptr %4, align 8, !tbaa !4
  %8 = getelementptr inbounds nuw %struct.jit_State, ptr %7, i32 0, i32 50
  %9 = load i32, ptr %8, align 8, !tbaa !67
  %10 = icmp eq i32 %9, 0
  br i1 %10, label %11, label %103

11:                                               ; preds = %3
  %12 = load ptr, ptr %4, align 8, !tbaa !4
  %13 = getelementptr inbounds nuw %struct.jit_State, ptr %12, i32 0, i32 51
  %14 = load i32, ptr %13, align 4, !tbaa !68
  %15 = icmp eq i32 %14, 0
  br i1 %15, label %16, label %103

16:                                               ; preds = %11
  %17 = load ptr, ptr %5, align 8, !tbaa !54
  %18 = load ptr, ptr %4, align 8, !tbaa !4
  %19 = getelementptr inbounds nuw %struct.jit_State, ptr %18, i32 0, i32 49
  %20 = load ptr, ptr %19, align 8, !tbaa !80
  %21 = icmp eq ptr %17, %20
  br i1 %21, label %22, label %51

22:                                               ; preds = %16
  %23 = load ptr, ptr %4, align 8, !tbaa !4
  %24 = getelementptr inbounds nuw %struct.jit_State, ptr %23, i32 0, i32 21
  %25 = load i32, ptr %24, align 4, !tbaa !37
  %26 = load ptr, ptr %4, align 8, !tbaa !4
  %27 = getelementptr inbounds nuw %struct.jit_State, ptr %26, i32 0, i32 22
  %28 = load i32, ptr %27, align 8, !tbaa !38
  %29 = add nsw i32 %25, %28
  %30 = icmp eq i32 %29, 0
  br i1 %30, label %31, label %51

31:                                               ; preds = %22
  %32 = load ptr, ptr %4, align 8, !tbaa !4
  %33 = getelementptr inbounds nuw %struct.jit_State, ptr %32, i32 0, i32 0
  %34 = getelementptr inbounds nuw %struct.GCtrace, ptr %33, i32 0, i32 14
  %35 = load i32, ptr %34, align 8, !tbaa !69
  %36 = and i32 %35, 255
  %37 = icmp eq i32 %36, 70
  br i1 %37, label %38, label %39

38:                                               ; preds = %31
  br label %122

39:                                               ; preds = %31
  %40 = load i32, ptr %6, align 4, !tbaa !9
  %41 = icmp eq i32 %40, 0
  br i1 %41, label %42, label %44

42:                                               ; preds = %39
  %43 = load ptr, ptr %4, align 8, !tbaa !4
  call void @lj_trace_err(ptr noundef %43, i32 noundef 8) #10
  unreachable

44:                                               ; preds = %39
  %45 = load ptr, ptr %4, align 8, !tbaa !4
  %46 = load ptr, ptr %4, align 8, !tbaa !4
  %47 = getelementptr inbounds nuw %struct.jit_State, ptr %46, i32 0, i32 0
  %48 = getelementptr inbounds nuw %struct.GCtrace, ptr %47, i32 0, i32 20
  %49 = load i16, ptr %48, align 8, !tbaa !36
  %50 = zext i16 %49 to i32
  call void @lj_record_stop(ptr noundef %45, i32 noundef 2, i32 noundef %50)
  br label %102

51:                                               ; preds = %22, %16
  %52 = load i32, ptr %6, align 4, !tbaa !9
  %53 = icmp ne i32 %52, 0
  br i1 %53, label %54, label %101

54:                                               ; preds = %51
  %55 = load ptr, ptr %5, align 8, !tbaa !54
  %56 = load i32, ptr %55, align 4, !tbaa !9
  %57 = lshr i32 %56, 16
  %58 = zext i32 %57 to i64
  %59 = sub nsw i64 %58, 32768
  %60 = icmp ne i64 %59, -1
  br i1 %60, label %61, label %68

61:                                               ; preds = %54
  %62 = load ptr, ptr %4, align 8, !tbaa !4
  %63 = load ptr, ptr %5, align 8, !tbaa !54
  %64 = call i32 @innerloopleft(ptr noundef %62, ptr noundef %63)
  %65 = icmp ne i32 %64, 0
  br i1 %65, label %68, label %66

66:                                               ; preds = %61
  %67 = load ptr, ptr %4, align 8, !tbaa !4
  call void @lj_trace_err(ptr noundef %67, i32 noundef 9) #10
  unreachable

68:                                               ; preds = %61, %54
  %69 = load i32, ptr %6, align 4, !tbaa !9
  %70 = icmp ne i32 %69, 1
  br i1 %70, label %71, label %86

71:                                               ; preds = %68
  %72 = load ptr, ptr %4, align 8, !tbaa !4
  %73 = getelementptr inbounds nuw %struct.jit_State, ptr %72, i32 0, i32 29
  %74 = load i32, ptr %73, align 8, !tbaa !135
  %75 = icmp ne i32 %74, 0
  br i1 %75, label %76, label %86

76:                                               ; preds = %71
  %77 = load ptr, ptr %4, align 8, !tbaa !4
  %78 = getelementptr inbounds nuw %struct.jit_State, ptr %77, i32 0, i32 0
  %79 = getelementptr inbounds nuw %struct.GCtrace, ptr %78, i32 0, i32 4
  %80 = load i32, ptr %79, align 4, !tbaa !113
  %81 = load ptr, ptr %4, align 8, !tbaa !4
  %82 = getelementptr inbounds nuw %struct.jit_State, ptr %81, i32 0, i32 29
  %83 = load i32, ptr %82, align 8, !tbaa !135
  %84 = sub i32 %80, %83
  %85 = icmp ugt i32 %84, 24
  br i1 %85, label %92, label %86

86:                                               ; preds = %76, %71, %68
  %87 = load ptr, ptr %4, align 8, !tbaa !4
  %88 = getelementptr inbounds nuw %struct.jit_State, ptr %87, i32 0, i32 19
  %89 = load i32, ptr %88, align 4, !tbaa !62
  %90 = add nsw i32 %89, -1
  store i32 %90, ptr %88, align 4, !tbaa !62
  %91 = icmp slt i32 %90, 0
  br i1 %91, label %92, label %94

92:                                               ; preds = %86, %76
  %93 = load ptr, ptr %4, align 8, !tbaa !4
  call void @lj_trace_err(ptr noundef %93, i32 noundef 10) #10
  unreachable

94:                                               ; preds = %86
  %95 = load ptr, ptr %4, align 8, !tbaa !4
  %96 = getelementptr inbounds nuw %struct.jit_State, ptr %95, i32 0, i32 0
  %97 = getelementptr inbounds nuw %struct.GCtrace, ptr %96, i32 0, i32 4
  %98 = load i32, ptr %97, align 4, !tbaa !113
  %99 = load ptr, ptr %4, align 8, !tbaa !4
  %100 = getelementptr inbounds nuw %struct.jit_State, ptr %99, i32 0, i32 29
  store i32 %98, ptr %100, align 8, !tbaa !135
  br label %101

101:                                              ; preds = %94, %51
  br label %102

102:                                              ; preds = %101, %44
  br label %122

103:                                              ; preds = %11, %3
  %104 = load i32, ptr %6, align 4, !tbaa !9
  %105 = icmp ne i32 %104, 0
  br i1 %105, label %106, label %121

106:                                              ; preds = %103
  %107 = load ptr, ptr %4, align 8, !tbaa !4
  %108 = getelementptr inbounds nuw %struct.jit_State, ptr %107, i32 0, i32 0
  %109 = getelementptr inbounds nuw %struct.GCtrace, ptr %108, i32 0, i32 4
  %110 = load i32, ptr %109, align 4, !tbaa !113
  %111 = load ptr, ptr %4, align 8, !tbaa !4
  %112 = getelementptr inbounds nuw %struct.jit_State, ptr %111, i32 0, i32 29
  store i32 %110, ptr %112, align 8, !tbaa !135
  %113 = load ptr, ptr %4, align 8, !tbaa !4
  %114 = getelementptr inbounds nuw %struct.jit_State, ptr %113, i32 0, i32 19
  %115 = load i32, ptr %114, align 4, !tbaa !62
  %116 = add nsw i32 %115, -1
  store i32 %116, ptr %114, align 4, !tbaa !62
  %117 = icmp slt i32 %116, 0
  br i1 %117, label %118, label %120

118:                                              ; preds = %106
  %119 = load ptr, ptr %4, align 8, !tbaa !4
  call void @lj_trace_err(ptr noundef %119, i32 noundef 10) #10
  unreachable

120:                                              ; preds = %106
  br label %121

121:                                              ; preds = %120, %103
  br label %122

122:                                              ; preds = %38, %121, %102
  ret void
}