; Function Attrs: nounwind uwtable
define internal fastcc void @rec_loop_interp(ptr noundef %0, ptr noundef readonly captures(address) %1, i32 noundef range(i32 0, 3) %2) unnamed_addr #0 {
  %4 = getelementptr inbounds nuw i8, ptr %0, i64 3016
  %5 = load i32, ptr %4, align 8, !tbaa !62
  %6 = icmp eq i32 %5, 0
  br i1 %6, label %7, label %72

7:                                                ; preds = %3
  %8 = getelementptr inbounds nuw i8, ptr %0, i64 3020
  %9 = load i32, ptr %8, align 4, !tbaa !63
  %10 = icmp eq i32 %9, 0
  br i1 %10, label %11, label %72

11:                                               ; preds = %7
  %12 = getelementptr inbounds nuw i8, ptr %0, i64 3008
  %13 = load ptr, ptr %12, align 8, !tbaa !77
  %14 = icmp eq ptr %1, %13
  br i1 %14, label %15, label %34

15:                                               ; preds = %11
  %16 = getelementptr inbounds nuw i8, ptr %0, i64 252
  %17 = load i32, ptr %16, align 4, !tbaa !31
  %18 = getelementptr inbounds nuw i8, ptr %0, i64 256
  %19 = load i32, ptr %18, align 8, !tbaa !32
  %20 = sub i32 0, %19
  %21 = icmp eq i32 %17, %20
  br i1 %21, label %22, label %34

22:                                               ; preds = %15
  %23 = getelementptr inbounds nuw i8, ptr %0, i64 80
  %24 = load i32, ptr %23, align 8, !tbaa !64
  %25 = and i32 %24, 255
  %26 = icmp eq i32 %25, 70
  br i1 %26, label %82, label %27

27:                                               ; preds = %22
  %28 = icmp eq i32 %2, 0
  br i1 %28, label %29, label %30

29:                                               ; preds = %27
  tail call void @lj_trace_err(ptr noundef nonnull %0, i32 noundef 8) #9
  unreachable

30:                                               ; preds = %27
  %31 = getelementptr inbounds nuw i8, ptr %0, i64 104
  %32 = load i16, ptr %31, align 8, !tbaa !30
  %33 = zext i16 %32 to i32
  tail call void @lj_record_stop(ptr noundef nonnull %0, i32 noundef 2, i32 noundef %33)
  br label %82

34:                                               ; preds = %15, %11
  %.not29 = icmp eq i32 %2, 0
  br i1 %.not29, label %82, label %35

35:                                               ; preds = %34
  %36 = load i32, ptr %1, align 4, !tbaa !37
  %.mask = and i32 %36, -65536
  %.not30 = icmp eq i32 %.mask, 2147418112
  br i1 %.not30, label %innerloopleft.exit, label %37

37:                                               ; preds = %35
  %38 = getelementptr inbounds nuw i8, ptr %0, i64 1824
  br label %41

39:                                               ; preds = %41
  %40 = add nuw nsw i64 %.013.i, 1
  %exitcond.not.i = icmp eq i64 %40, 64
  br i1 %exitcond.not.i, label %.loopexit, label %41, !llvm.loop !164

41:                                               ; preds = %39, %37
  %.013.i = phi i64 [ 0, %37 ], [ %40, %39 ]
  %42 = getelementptr inbounds nuw [64 x %struct.HotPenalty], ptr %38, i64 0, i64 %.013.i
  %43 = load i64, ptr %42, align 8, !tbaa !165
  %44 = inttoptr i64 %43 to ptr
  %45 = icmp eq ptr %1, %44
  br i1 %45, label %46, label %39

46:                                               ; preds = %41
  %47 = getelementptr inbounds nuw i8, ptr %42, i64 10
  %48 = load i16, ptr %47, align 2, !tbaa !167
  %49 = and i16 %48, -2
  %switch.i = icmp eq i16 %49, 8
  br i1 %switch.i, label %50, label %.loopexit

50:                                               ; preds = %46
  %51 = getelementptr inbounds nuw i8, ptr %42, i64 8
  %52 = load i16, ptr %51, align 8, !tbaa !168
  %53 = icmp ugt i16 %52, 143
  br i1 %53, label %innerloopleft.exit, label %.loopexit

.loopexit:                                        ; preds = %39, %46, %50
  tail call void @lj_trace_err(ptr noundef nonnull %0, i32 noundef 9) #9
  unreachable

innerloopleft.exit:                               ; preds = %50, %35
  %.not32 = icmp eq i32 %2, 1
  br i1 %.not32, label %62, label %54

54:                                               ; preds = %innerloopleft.exit
  %55 = getelementptr inbounds nuw i8, ptr %0, i64 344
  %56 = load i32, ptr %55, align 8, !tbaa !118
  %.not33 = icmp eq i32 %56, 0
  br i1 %.not33, label %62, label %57

57:                                               ; preds = %54
  %58 = getelementptr inbounds nuw i8, ptr %0, i64 12
  %59 = load i32, ptr %58, align 4, !tbaa !91
  %60 = sub i32 %59, %56
  %61 = icmp ugt i32 %60, 24
  br i1 %61, label %67, label %62

62:                                               ; preds = %57, %54, %innerloopleft.exit
  %63 = getelementptr inbounds nuw i8, ptr %0, i64 244
  %64 = load i32, ptr %63, align 4, !tbaa !57
  %65 = add nsw i32 %64, -1
  store i32 %65, ptr %63, align 4, !tbaa !57
  %66 = icmp slt i32 %64, 1
  br i1 %66, label %67, label %68

67:                                               ; preds = %62, %57
  tail call void @lj_trace_err(ptr noundef nonnull %0, i32 noundef 10) #9
  unreachable

68:                                               ; preds = %62
  %69 = getelementptr inbounds nuw i8, ptr %0, i64 12
  %70 = load i32, ptr %69, align 4, !tbaa !91
  %71 = getelementptr inbounds nuw i8, ptr %0, i64 344
  store i32 %70, ptr %71, align 8, !tbaa !118
  br label %82

72:                                               ; preds = %7, %3
  %.not = icmp eq i32 %2, 0
  br i1 %.not, label %82, label %73

73:                                               ; preds = %72
  %74 = getelementptr inbounds nuw i8, ptr %0, i64 12
  %75 = load i32, ptr %74, align 4, !tbaa !91
  %76 = getelementptr inbounds nuw i8, ptr %0, i64 344
  store i32 %75, ptr %76, align 8, !tbaa !118
  %77 = getelementptr inbounds nuw i8, ptr %0, i64 244
  %78 = load i32, ptr %77, align 4, !tbaa !57
  %79 = add nsw i32 %78, -1
  store i32 %79, ptr %77, align 4, !tbaa !57
  %80 = icmp slt i32 %78, 1
  br i1 %80, label %81, label %82

81:                                               ; preds = %73
  tail call void @lj_trace_err(ptr noundef nonnull %0, i32 noundef 10) #9
  unreachable

82:                                               ; preds = %72, %73, %30, %68, %34, %22
  ret void
}